target datalayout = "e-m:e-p270:32:32-p271:32:32-p272:64:64-i64:64-i128:128-f80:128-n8:16:32:64-S128"
target triple = "x86_64-pc-linux-gnu"

%"class.zmq::v1_decoder_t" = type { %"class.zmq::decoder_base_t", [8 x i8], %"class.zmq::msg_t", i64 }
%"class.zmq::decoder_base_t" = type { %"class.zmq::i_decoder", { i64, i64 }, ptr, i64, %"class.zmq::c_single_allocator", ptr }
%"class.zmq::i_decoder" = type { ptr }
%"class.zmq::c_single_allocator" = type { i64, ptr }
%"class.zmq::msg_t" = type { %union.anon }
%union.anon = type { %struct.anon }
%struct.anon = type { ptr, [34 x i8], i8, i8, i32, %"union.zmq::msg_t::group_t" }
%"union.zmq::msg_t::group_t" = type { %struct.anon.1 }
%struct.anon.1 = type { i8, ptr }

; Function Attrs: mustprogress nounwind uwtable
define linkonce_odr void @_ZN3zmq14decoder_base_tINS_12v1_decoder_tENS_18c_single_allocatorEE9next_stepEPvmMS1_FiPKhE(ptr noundef nonnull align 8 dereferenceable(64) %0, ptr noundef %1, i64 noundef %2, i64 %3, i64 %4) #6 comdat align 2 {
  %6 = alloca { i64, i64 }, align 8
  %7 = alloca ptr, align 8
  %8 = alloca ptr, align 8
  %9 = alloca i64, align 8
  %10 = alloca { i64, i64 }, align 8
  %11 = getelementptr inbounds nuw { i64, i64 }, ptr %6, i32 0, i32 0
  store i64 %3, ptr %11, align 8
  %12 = getelementptr inbounds nuw { i64, i64 }, ptr %6, i32 0, i32 1
  store i64 %4, ptr %12, align 8
  %13 = load { i64, i64 }, ptr %6, align 8, !tbaa !24
  store ptr %0, ptr %7, align 8, !tbaa !25
  store ptr %1, ptr %8, align 8, !tbaa !31
  store i64 %2, ptr %9, align 8, !tbaa !8
  store { i64, i64 } %13, ptr %10, align 8, !tbaa !24
  %14 = load ptr, ptr %7, align 8
  %15 = load ptr, ptr %8, align 8, !tbaa !31
  %16 = getelementptr inbounds nuw %"class.zmq::decoder_base_t", ptr %14, i32 0, i32 2
  store ptr %15, ptr %16, align 8, !tbaa !28
  %17 = load i64, ptr %9, align 8, !tbaa !8
  %18 = getelementptr inbounds nuw %"class.zmq::decoder_base_t", ptr %14, i32 0, i32 3
  store i64 %17, ptr %18, align 8, !tbaa !29
  %19 = load { i64, i64 }, ptr %10, align 8, !tbaa !24
  %20 = getelementptr inbounds nuw %"class.zmq::decoder_base_t", ptr %14, i32 0, i32 1
  store { i64, i64 } %19, ptr %20, align 8, !tbaa !27
  ret void
}

; Function Attrs: mustprogress uwtable
define noundef i32 @_ZN3zmq12v1_decoder_t13message_readyEPKh(ptr noundef nonnull align 8 dereferenceable(144) %0, ptr noundef %1) #0 align 2 {
  %3 = alloca ptr, align 8
  %4 = alloca ptr, align 8
  %5 = alloca { i64, i64 }, align 8
  store ptr %0, ptr %3, align 8, !tbaa !3
  store ptr %1, ptr %4, align 8, !tbaa !21
  %6 = load ptr, ptr %3, align 8
  %7 = getelementptr inbounds nuw %"class.zmq::v1_decoder_t", ptr %6, i32 0, i32 1
  %8 = getelementptr inbounds [8 x i8], ptr %7, i64 0, i64 0
  store { i64, i64 } { i64 ptrtoint (ptr @_ZN3zmq12v1_decoder_t19one_byte_size_readyEPKh to i64), i64 0 }, ptr %5, align 8, !tbaa !24
  %9 = getelementptr inbounds nuw { i64, i64 }, ptr %5, i32 0, i32 0
  %10 = load i64, ptr %9, align 8
  %11 = getelementptr inbounds nuw { i64, i64 }, ptr %5, i32 0, i32 1
  %12 = load i64, ptr %11, align 8
  call void @_ZN3zmq14decoder_base_tINS_12v1_decoder_tENS_18c_single_allocatorEE9next_stepEPvmMS1_FiPKhE(ptr noundef nonnull align 8 dereferenceable(64) %6, ptr noundef %8, i64 noundef 1, i64 %10, i64 %12)
  ret i32 1
}