; Function Attrs: mustprogress nofree norecurse nosync nounwind willreturn memory(argmem: write) uwtable
define noundef i32 @_ZN3zmq12v1_decoder_t13message_readyEPKh(ptr noundef nonnull align 8 dereferenceable(144) %0, ptr readnone captures(none) %1) #9 align 2 {
  %3 = getelementptr inbounds nuw i8, ptr %0, i64 64
  %4 = getelementptr inbounds nuw i8, ptr %0, i64 24
  store ptr %3, ptr %4, align 8, !tbaa !25
  %5 = getelementptr inbounds nuw i8, ptr %0, i64 32
  store i64 1, ptr %5, align 8, !tbaa !26
  %6 = getelementptr inbounds nuw i8, ptr %0, i64 8
  store i64 ptrtoint (ptr @_ZN3zmq12v1_decoder_t19one_byte_size_readyEPKh to i64), ptr %6, align 8, !tbaa !27
  %.repack8.i = getelementptr inbounds nuw i8, ptr %0, i64 16
  store i64 0, ptr %.repack8.i, align 8, !tbaa !27
  ret i32 1
}